target datalayout = "e-m:e-p270:32:32-p271:32:32-p272:64:64-i64:64-i128:128-f80:128-n8:16:32:64-S128"
target triple = "x86_64-pc-linux-gnu"

%"class.std::__shared_count" = type { ptr }
%"class.cv::VideoWriter" = type { ptr, %"struct.cv::Ptr.34", %"struct.cv::Ptr.38" }
%"struct.cv::Ptr.34" = type { %"class.std::shared_ptr.35" }
%"class.std::shared_ptr.35" = type { %"class.std::__shared_ptr.36" }
%"class.std::__shared_ptr.36" = type { ptr, %"class.std::__shared_count" }
%"struct.cv::Ptr.38" = type { %"class.std::shared_ptr.39" }
%"class.std::shared_ptr.39" = type { %"class.std::__shared_ptr.40" }
%"class.std::__shared_ptr.40" = type { ptr, %"class.std::__shared_count" }

; Function Attrs: mustprogress nounwind uwtable
define linkonce_odr hidden void @_ZNSt14__shared_countILN9__gnu_cxx12_Lock_policyE2EEC2Ev(ptr noundef nonnull align 8 dereferenceable(8) %0) unnamed_addr #5 comdat align 2 {
  %2 = alloca ptr, align 8
  store ptr %0, ptr %2, align 8, !tbaa !177
  %3 = load ptr, ptr %2, align 8
  %4 = getelementptr inbounds nuw %"class.std::__shared_count", ptr %3, i32 0, i32 0
  store ptr null, ptr %4, align 8, !tbaa !179
  ret void
}

; Function Attrs: mustprogress nounwind uwtable
define linkonce_odr hidden void @_ZNSt12__shared_ptrIN2cv12IVideoWriterELN9__gnu_cxx12_Lock_policyE2EEC2Ev(ptr noundef nonnull align 8 dereferenceable(16) %0) unnamed_addr #5 comdat align 2 {
  %2 = alloca ptr, align 8
  store ptr %0, ptr %2, align 8, !tbaa !169
  %3 = load ptr, ptr %2, align 8
  %4 = getelementptr inbounds nuw %"class.std::__shared_ptr.40", ptr %3, i32 0, i32 0
  store ptr null, ptr %4, align 8, !tbaa !171
  %5 = getelementptr inbounds nuw %"class.std::__shared_ptr.40", ptr %3, i32 0, i32 1
  call void @_ZNSt14__shared_countILN9__gnu_cxx12_Lock_policyE2EEC2Ev(ptr noundef nonnull align 8 dereferenceable(8) %5) #3
  ret void
}

; Function Attrs: mustprogress nounwind uwtable
define linkonce_odr hidden void @_ZNSt12__shared_ptrI13CvVideoWriterLN9__gnu_cxx12_Lock_policyE2EEC2Ev(ptr noundef nonnull align 8 dereferenceable(16) %0) unnamed_addr #5 comdat align 2 {
  %2 = alloca ptr, align 8
  store ptr %0, ptr %2, align 8, !tbaa !135
  %3 = load ptr, ptr %2, align 8
  %4 = getelementptr inbounds nuw %"class.std::__shared_ptr.36", ptr %3, i32 0, i32 0
  store ptr null, ptr %4, align 8, !tbaa !327
  %5 = getelementptr inbounds nuw %"class.std::__shared_ptr.36", ptr %3, i32 0, i32 1
  call void @_ZNSt14__shared_countILN9__gnu_cxx12_Lock_policyE2EEC2Ev(ptr noundef nonnull align 8 dereferenceable(8) %5) #3
  ret void
}

; Function Attrs: mustprogress nounwind uwtable
define linkonce_odr hidden void @_ZNSt10shared_ptrIN2cv12IVideoWriterEEC2Ev(ptr noundef nonnull align 8 dereferenceable(16) %0) unnamed_addr #5 comdat align 2 {
  %2 = alloca ptr, align 8
  store ptr %0, ptr %2, align 8, !tbaa !329
  %3 = load ptr, ptr %2, align 8
  call void @_ZNSt12__shared_ptrIN2cv12IVideoWriterELN9__gnu_cxx12_Lock_policyE2EEC2Ev(ptr noundef nonnull align 8 dereferenceable(16) %3) #3
  ret void
}

; Function Attrs: mustprogress nounwind uwtable
define linkonce_odr hidden void @_ZNSt10shared_ptrI13CvVideoWriterEC2Ev(ptr noundef nonnull align 8 dereferenceable(16) %0) unnamed_addr #5 comdat align 2 {
  %2 = alloca ptr, align 8
  store ptr %0, ptr %2, align 8, !tbaa !325
  %3 = load ptr, ptr %2, align 8
  call void @_ZNSt12__shared_ptrI13CvVideoWriterLN9__gnu_cxx12_Lock_policyE2EEC2Ev(ptr noundef nonnull align 8 dereferenceable(16) %3) #3
  ret void
}

; Function Attrs: mustprogress uwtable
define noundef zeroext i1 @_ZN2cv11VideoWriter4openERKNSt7__cxx1112basic_stringIcSt11char_traitsIcESaIcEEEidRKNS_5Size_IiEERKSt6vectorIiSaIiEE(ptr noundef nonnull align 8 dereferenceable(40) %0, ptr noundef nonnull align 8 dereferenceable(32) %1, i32 noundef %2, double noundef %3, ptr noundef nonnull align 4 dereferenceable(8) %4, ptr noundef nonnull align 8 dereferenceable(24) %5) #4 align 2 {
  %7 = alloca ptr, align 8
  %8 = alloca ptr, align 8
  %9 = alloca i32, align 4
  %10 = alloca double, align 8
  %11 = alloca ptr, align 8
  %12 = alloca ptr, align 8
  store ptr %0, ptr %7, align 8, !tbaa !128
  store ptr %1, ptr %8, align 8, !tbaa !37
  store i32 %2, ptr %9, align 4, !tbaa !39
  store double %3, ptr %10, align 8, !tbaa !119
  store ptr %4, ptr %11, align 8, !tbaa !140
  store ptr %5, ptr %12, align 8, !tbaa !48
  %13 = load ptr, ptr %7, align 8
  %14 = load ptr, ptr %8, align 8, !tbaa !37
  %15 = load i32, ptr %9, align 4, !tbaa !39
  %16 = load double, ptr %10, align 8, !tbaa !119
  %17 = load ptr, ptr %11, align 8, !tbaa !140
  %18 = load ptr, ptr %12, align 8, !tbaa !48
  %19 = call noundef zeroext i1 @_ZN2cv11VideoWriter4openERKNSt7__cxx1112basic_stringIcSt11char_traitsIcESaIcEEEiidRKNS_5Size_IiEERKSt6vectorIiSaIiEE(ptr noundef nonnull align 8 dereferenceable(40) %13, ptr noundef nonnull align 8 dereferenceable(32) %14, i32 noundef 0, i32 noundef %15, double noundef %16, ptr noundef nonnull align 4 dereferenceable(8) %17, ptr noundef nonnull align 8 dereferenceable(24) %18)
  ret i1 %19
}

; Function Attrs: inlinehint mustprogress nounwind uwtable
define linkonce_odr hidden void @_ZN2cv3PtrINS_12IVideoWriterEEC2Ev(ptr noundef nonnull align 8 dereferenceable(16) %0) unnamed_addr #7 comdat align 2 {
  %2 = alloca ptr, align 8
  store ptr %0, ptr %2, align 8, !tbaa !132
  %3 = load ptr, ptr %2, align 8
  call void @_ZNSt10shared_ptrIN2cv12IVideoWriterEEC2Ev(ptr noundef nonnull align 8 dereferenceable(16) %3) #3
  ret void
}

; Function Attrs: inlinehint mustprogress nounwind uwtable
define linkonce_odr hidden void @_ZN2cv3PtrI13CvVideoWriterEC2Ev(ptr noundef nonnull align 8 dereferenceable(16) %0) unnamed_addr #7 comdat align 2 {
  %2 = alloca ptr, align 8
  store ptr %0, ptr %2, align 8, !tbaa !130
  %3 = load ptr, ptr %2, align 8
  call void @_ZNSt10shared_ptrI13CvVideoWriterEC2Ev(ptr noundef nonnull align 8 dereferenceable(16) %3) #3
  ret void
}

; Function Attrs: mustprogress uwtable
define void @_ZN2cv11VideoWriterC2ERKNSt7__cxx1112basic_stringIcSt11char_traitsIcESaIcEEEidRKNS_5Size_IiEERKSt6vectorIiSaIiEE(ptr noundef nonnull align 8 dereferenceable(40) %0, ptr noundef nonnull align 8 dereferenceable(32) %1, i32 noundef %2, double noundef %3, ptr noundef nonnull align 4 dereferenceable(8) %4, ptr noundef nonnull align 8 dereferenceable(24) %5) unnamed_addr #4 align 2 personality ptr @__gxx_personality_v0 {
  %7 = alloca ptr, align 8
  %8 = alloca ptr, align 8
  %9 = alloca i32, align 4
  %10 = alloca double, align 8
  %11 = alloca ptr, align 8
  %12 = alloca ptr, align 8
  %13 = alloca ptr, align 8
  %14 = alloca i32, align 4
  store ptr %0, ptr %7, align 8, !tbaa !128
  store ptr %1, ptr %8, align 8, !tbaa !37
  store i32 %2, ptr %9, align 4, !tbaa !39
  store double %3, ptr %10, align 8, !tbaa !119
  store ptr %4, ptr %11, align 8, !tbaa !140
  store ptr %5, ptr %12, align 8, !tbaa !48
  %15 = load ptr, ptr %7, align 8
  store ptr getelementptr inbounds inrange(-16, 80) ({ [12 x ptr] }, ptr @_ZTVN2cv11VideoWriterE, i32 0, i32 0, i32 2), ptr %15, align 8, !tbaa !20
  %16 = getelementptr inbounds nuw %"class.cv::VideoWriter", ptr %15, i32 0, i32 1
  call void @_ZN2cv3PtrI13CvVideoWriterEC2Ev(ptr noundef nonnull align 8 dereferenceable(16) %16) #3
  %17 = getelementptr inbounds nuw %"class.cv::VideoWriter", ptr %15, i32 0, i32 2
  call void @_ZN2cv3PtrINS_12IVideoWriterEEC2Ev(ptr noundef nonnull align 8 dereferenceable(16) %17) #3
  %18 = load ptr, ptr %8, align 8, !tbaa !37
  %19 = load i32, ptr %9, align 4, !tbaa !39
  %20 = load double, ptr %10, align 8, !tbaa !119
  %21 = load ptr, ptr %11, align 8, !tbaa !140
  %22 = load ptr, ptr %12, align 8, !tbaa !48
  %23 = invoke noundef zeroext i1 @_ZN2cv11VideoWriter4openERKNSt7__cxx1112basic_stringIcSt11char_traitsIcESaIcEEEidRKNS_5Size_IiEERKSt6vectorIiSaIiEE(ptr noundef nonnull align 8 dereferenceable(40) %15, ptr noundef nonnull align 8 dereferenceable(32) %18, i32 noundef %19, double noundef %20, ptr noundef nonnull align 4 dereferenceable(8) %21, ptr noundef nonnull align 8 dereferenceable(24) %22)
          to label %24 unwind label %25

24:                                               ; preds = %6
  ret void

25:                                               ; preds = %6
  %26 = landingpad { ptr, i32 }
          cleanup
  %27 = extractvalue { ptr, i32 } %26, 0
  store ptr %27, ptr %13, align 8
  %28 = extractvalue { ptr, i32 } %26, 1
  store i32 %28, ptr %14, align 4
  call void @_ZNSt12__shared_ptrIN2cv12IVideoWriterELN9__gnu_cxx12_Lock_policyE2EED2Ev(ptr noundef nonnull align 8 dereferenceable(16) %17) #3
  call void @_ZNSt12__shared_ptrI13CvVideoWriterLN9__gnu_cxx12_Lock_policyE2EED2Ev(ptr noundef nonnull align 8 dereferenceable(16) %16) #3
  br label %29

29:                                               ; preds = %25
  %30 = load ptr, ptr %13, align 8
  %31 = load i32, ptr %14, align 4
  %32 = insertvalue { ptr, i32 } poison, ptr %30, 0
  %33 = insertvalue { ptr, i32 } %32, i32 %31, 1
  resume { ptr, i32 } %33
}