; Function Attrs: mustprogress uwtable
define void @_ZN2cv11VideoWriterC2ERKNSt7__cxx1112basic_stringIcSt11char_traitsIcESaIcEEEidRKNS_5Size_IiEERKSt6vectorIiSaIiEE(ptr noundef nonnull align 8 dereferenceable(40) initializes((0, 40)) %0, ptr noundef nonnull align 8 dereferenceable(32) %1, i32 noundef %2, double noundef %3, ptr noundef nonnull align 4 dereferenceable(8) %4, ptr noundef nonnull align 8 dereferenceable(24) %5) unnamed_addr #3 align 2 personality ptr @__gxx_personality_v0 {
  store ptr getelementptr inbounds nuw inrange(-16, 80) (i8, ptr @_ZTVN2cv11VideoWriterE, i64 16), ptr %0, align 8, !tbaa !10
  %7 = getelementptr inbounds nuw i8, ptr %0, i64 8
  tail call void @llvm.memset.p0.i64(ptr noundef nonnull align 8 dereferenceable(32) %7, i8 0, i64 32, i1 false)
  %8 = invoke noundef zeroext i1 @_ZN2cv11VideoWriter4openERKNSt7__cxx1112basic_stringIcSt11char_traitsIcESaIcEEEiidRKNS_5Size_IiEERKSt6vectorIiSaIiEE(ptr noundef nonnull align 8 dereferenceable(40) %0, ptr noundef nonnull align 8 dereferenceable(32) %1, i32 noundef 0, i32 noundef %2, double noundef %3, ptr noundef nonnull align 4 dereferenceable(8) %4, ptr noundef nonnull align 8 dereferenceable(24) %5)
          to label %_ZN2cv11VideoWriter4openERKNSt7__cxx1112basic_stringIcSt11char_traitsIcESaIcEEEidRKNS_5Size_IiEERKSt6vectorIiSaIiEE.exit unwind label %9

_ZN2cv11VideoWriter4openERKNSt7__cxx1112basic_stringIcSt11char_traitsIcESaIcEEEidRKNS_5Size_IiEERKSt6vectorIiSaIiEE.exit: ; preds = %6
  ret void

9:                                                ; preds = %6
  %10 = landingpad { ptr, i32 }
          cleanup
  %11 = getelementptr inbounds nuw i8, ptr %0, i64 24
  tail call void @_ZNSt12__shared_ptrIN2cv12IVideoWriterELN9__gnu_cxx12_Lock_policyE2EED2Ev(ptr noundef nonnull align 8 dereferenceable(16) %11) #27
  tail call void @_ZNSt12__shared_ptrI13CvVideoWriterLN9__gnu_cxx12_Lock_policyE2EED2Ev(ptr noundef nonnull align 8 dereferenceable(16) %7) #27
  resume { ptr, i32 } %10
}